target datalayout = "e-m:e-p270:32:32-p271:32:32-p272:64:64-i64:64-i128:128-f80:128-n8:16:32:64-S128"
target triple = "x86_64-pc-linux-gnu"

%"class.cv::KAZEFeatures" = type { %"struct.cv::KAZEOptions", %"class.std::vector", %"class.std::vector.0", i32, i8, %"class.std::vector.5", %"class.std::vector.10" }
%"struct.cv::KAZEOptions" = type <{ i32, float, i32, i32, i32, i32, float, float, float, float, i32, i8, i8, [2 x i8] }>
%"class.std::vector" = type { %"struct.std::_Vector_base" }
%"struct.std::_Vector_base" = type { %"struct.std::_Vector_base<cv::TEvolution, std::allocator<cv::TEvolution>>::_Vector_impl" }
%"struct.std::_Vector_base<cv::TEvolution, std::allocator<cv::TEvolution>>::_Vector_impl" = type { %"struct.std::_Vector_base<cv::TEvolution, std::allocator<cv::TEvolution>>::_Vector_impl_data" }
%"struct.std::_Vector_base<cv::TEvolution, std::allocator<cv::TEvolution>>::_Vector_impl_data" = type { ptr, ptr, ptr }
%"class.std::vector.0" = type { %"struct.std::_Vector_base.1" }
%"struct.std::_Vector_base.1" = type { %"struct.std::_Vector_base<std::vector<cv::KeyPoint>, std::allocator<std::vector<cv::KeyPoint>>>::_Vector_impl" }
%"struct.std::_Vector_base<std::vector<cv::KeyPoint>, std::allocator<std::vector<cv::KeyPoint>>>::_Vector_impl" = type { %"struct.std::_Vector_base<std::vector<cv::KeyPoint>, std::allocator<std::vector<cv::KeyPoint>>>::_Vector_impl_data" }
%"struct.std::_Vector_base<std::vector<cv::KeyPoint>, std::allocator<std::vector<cv::KeyPoint>>>::_Vector_impl_data" = type { ptr, ptr, ptr }
%"class.std::vector.5" = type { %"struct.std::_Vector_base.6" }
%"struct.std::_Vector_base.6" = type { %"struct.std::_Vector_base<std::vector<float>, std::allocator<std::vector<float>>>::_Vector_impl" }
%"struct.std::_Vector_base<std::vector<float>, std::allocator<std::vector<float>>>::_Vector_impl" = type { %"struct.std::_Vector_base<std::vector<float>, std::allocator<std::vector<float>>>::_Vector_impl_data" }
%"struct.std::_Vector_base<std::vector<float>, std::allocator<std::vector<float>>>::_Vector_impl_data" = type { ptr, ptr, ptr }
%"class.std::vector.10" = type { %"struct.std::_Vector_base.11" }
%"struct.std::_Vector_base.11" = type { %"struct.std::_Vector_base<int, std::allocator<int>>::_Vector_impl" }
%"struct.std::_Vector_base<int, std::allocator<int>>::_Vector_impl" = type { %"struct.std::_Vector_base<int, std::allocator<int>>::_Vector_impl_data" }
%"struct.std::_Vector_base<int, std::allocator<int>>::_Vector_impl_data" = type { ptr, ptr, ptr }
%"class.cv::Range" = type { i32, i32 }
%"class.cv::MultiscaleDerivativesKAZEInvoker" = type { %"class.cv::ParallelLoopBody", ptr }
%"class.cv::ParallelLoopBody" = type { ptr }

@_ZTVN2cv16ParallelLoopBodyE = available_externally unnamed_addr constant { [5 x ptr] } { [5 x ptr] [ptr null, ptr @_ZTIN2cv16ParallelLoopBodyE, ptr @_ZN2cv16ParallelLoopBodyD1Ev, ptr @_ZN2cv16ParallelLoopBodyD0Ev, ptr @__cxa_pure_virtual] }, align 8

; Function Attrs: inlinehint mustprogress nounwind uwtable
define linkonce_odr hidden void @_ZN2cv16ParallelLoopBodyC2Ev(ptr noundef nonnull align 8 dereferenceable(8) %0) unnamed_addr #6 comdat align 2 {
  %2 = alloca ptr, align 8
  store ptr %0, ptr %2, align 8, !tbaa !274
  %3 = load ptr, ptr %2, align 8
  store ptr getelementptr inbounds inrange(-16, 24) ({ [5 x ptr] }, ptr @_ZTVN2cv16ParallelLoopBodyE, i32 0, i32 0, i32 2), ptr %3, align 8, !tbaa !95
  ret void
}

; Function Attrs: mustprogress nounwind uwtable
define linkonce_odr hidden void @_ZN2cv32MultiscaleDerivativesKAZEInvokerC2ERSt6vectorINS_10TEvolutionESaIS2_EE(ptr noundef nonnull align 8 dereferenceable(16) %0, ptr noundef nonnull align 8 dereferenceable(24) %1) unnamed_addr #2 comdat align 2 {
  %3 = alloca ptr, align 8
  %4 = alloca ptr, align 8
  store ptr %0, ptr %3, align 8, !tbaa !161
  store ptr %1, ptr %4, align 8, !tbaa !43
  %5 = load ptr, ptr %3, align 8
  call void @_ZN2cv16ParallelLoopBodyC2Ev(ptr noundef nonnull align 8 dereferenceable(8) %5) #20
  store ptr getelementptr inbounds inrange(-16, 24) ({ [5 x ptr] }, ptr @_ZTVN2cv32MultiscaleDerivativesKAZEInvokerE, i32 0, i32 0, i32 2), ptr %5, align 8, !tbaa !95
  %6 = getelementptr inbounds nuw %"class.cv::MultiscaleDerivativesKAZEInvoker", ptr %5, i32 0, i32 1
  %7 = load ptr, ptr %4, align 8, !tbaa !43
  store ptr %7, ptr %6, align 8, !tbaa !163
  ret void
}

; Function Attrs: inlinehint mustprogress nounwind uwtable
define linkonce_odr hidden void @_ZN2cv5RangeC2Eii(ptr noundef nonnull align 4 dereferenceable(8) %0, i32 noundef %1, i32 noundef %2) unnamed_addr #6 comdat align 2 {
  %4 = alloca ptr, align 8
  %5 = alloca i32, align 4
  %6 = alloca i32, align 4
  store ptr %0, ptr %4, align 8, !tbaa !156
  store i32 %1, ptr %5, align 4, !tbaa !15
  store i32 %2, ptr %6, align 4, !tbaa !15
  %7 = load ptr, ptr %4, align 8
  %8 = getelementptr inbounds nuw %"class.cv::Range", ptr %7, i32 0, i32 0
  %9 = load i32, ptr %5, align 4, !tbaa !15
  store i32 %9, ptr %8, align 4, !tbaa !158
  %10 = getelementptr inbounds nuw %"class.cv::Range", ptr %7, i32 0, i32 1
  %11 = load i32, ptr %6, align 4, !tbaa !15
  store i32 %11, ptr %10, align 4, !tbaa !160
  ret void
}

; Function Attrs: mustprogress nounwind uwtable
define linkonce_odr hidden noundef i64 @_ZNKSt6vectorIN2cv10TEvolutionESaIS1_EE4sizeEv(ptr noundef nonnull align 8 dereferenceable(24) %0) #2 comdat align 2 {
  %2 = alloca ptr, align 8
  store ptr %0, ptr %2, align 8, !tbaa !43
  %3 = load ptr, ptr %2, align 8
  %4 = getelementptr inbounds nuw %"struct.std::_Vector_base", ptr %3, i32 0, i32 0
  %5 = getelementptr inbounds nuw %"struct.std::_Vector_base<cv::TEvolution, std::allocator<cv::TEvolution>>::_Vector_impl_data", ptr %4, i32 0, i32 1
  %6 = load ptr, ptr %5, align 8, !tbaa !82
  %7 = getelementptr inbounds nuw %"struct.std::_Vector_base", ptr %3, i32 0, i32 0
  %8 = getelementptr inbounds nuw %"struct.std::_Vector_base<cv::TEvolution, std::allocator<cv::TEvolution>>::_Vector_impl_data", ptr %7, i32 0, i32 0
  %9 = load ptr, ptr %8, align 8, !tbaa !81
  %10 = ptrtoint ptr %6 to i64
  %11 = ptrtoint ptr %9 to i64
  %12 = sub i64 %10, %11
  %13 = sdiv exact i64 %12, 792
  ret i64 %13
}

; Function Attrs: mustprogress uwtable
define hidden void @_ZN2cv12KAZEFeatures30Compute_Multiscale_DerivativesEv(ptr noundef nonnull align 8 dereferenceable(152) %0) #0 align 2 personality ptr @__gxx_personality_v0 {
  %2 = alloca ptr, align 8
  %3 = alloca %"class.cv::Range", align 4
  %4 = alloca %"class.cv::MultiscaleDerivativesKAZEInvoker", align 8
  %5 = alloca ptr, align 8
  %6 = alloca i32, align 4
  store ptr %0, ptr %2, align 8, !tbaa !3
  %7 = load ptr, ptr %2, align 8
  call void @llvm.lifetime.start.p0(i64 8, ptr %3) #20
  %8 = getelementptr inbounds nuw %"class.cv::KAZEFeatures", ptr %7, i32 0, i32 1
  %9 = call noundef i64 @_ZNKSt6vectorIN2cv10TEvolutionESaIS1_EE4sizeEv(ptr noundef nonnull align 8 dereferenceable(24) %8) #20
  %10 = trunc i64 %9 to i32
  call void @_ZN2cv5RangeC2Eii(ptr noundef nonnull align 4 dereferenceable(8) %3, i32 noundef 0, i32 noundef %10)
  call void @llvm.lifetime.start.p0(i64 16, ptr %4) #20
  %11 = getelementptr inbounds nuw %"class.cv::KAZEFeatures", ptr %7, i32 0, i32 1
  call void @_ZN2cv32MultiscaleDerivativesKAZEInvokerC2ERSt6vectorINS_10TEvolutionESaIS2_EE(ptr noundef nonnull align 8 dereferenceable(16) %4, ptr noundef nonnull align 8 dereferenceable(24) %11)
  invoke void @_ZN2cv13parallel_for_ERKNS_5RangeERKNS_16ParallelLoopBodyEd(ptr noundef nonnull align 4 dereferenceable(8) %3, ptr noundef nonnull align 8 dereferenceable(8) %4, double noundef -1.000000e+00)
          to label %12 unwind label %13

12:                                               ; preds = %1
  call void @_ZN2cv16ParallelLoopBodyD2Ev(ptr noundef nonnull align 8 dereferenceable(16) %4) #20
  call void @llvm.lifetime.end.p0(i64 16, ptr %4) #20
  call void @llvm.lifetime.end.p0(i64 8, ptr %3) #20
  ret void

13:                                               ; preds = %1
  %14 = landingpad { ptr, i32 }
          cleanup
  %15 = extractvalue { ptr, i32 } %14, 0
  store ptr %15, ptr %5, align 8
  %16 = extractvalue { ptr, i32 } %14, 1
  store i32 %16, ptr %6, align 4
  call void @_ZN2cv16ParallelLoopBodyD2Ev(ptr noundef nonnull align 8 dereferenceable(16) %4) #20
  call void @llvm.lifetime.end.p0(i64 16, ptr %4) #20
  call void @llvm.lifetime.end.p0(i64 8, ptr %3) #20
  br label %17

17:                                               ; preds = %13
  %18 = load ptr, ptr %5, align 8
  %19 = load i32, ptr %6, align 4
  %20 = insertvalue { ptr, i32 } poison, ptr %18, 0
  %21 = insertvalue { ptr, i32 } %20, i32 %19, 1
  resume { ptr, i32 } %21
}