; Function Attrs: mustprogress uwtable
define hidden void @_ZN2cv12KAZEFeatures30Compute_Multiscale_DerivativesEv(ptr noundef nonnull align 8 dereferenceable(152) %0) local_unnamed_addr #0 align 2 personality ptr @__gxx_personality_v0 {
  %2 = alloca %"class.cv::Range", align 4
  %3 = alloca %"class.cv::MultiscaleDerivativesKAZEInvoker", align 8
  call void @llvm.lifetime.start.p0(i64 8, ptr nonnull %2) #23
  %4 = getelementptr inbounds nuw i8, ptr %0, i64 48
  %5 = getelementptr inbounds nuw i8, ptr %0, i64 56
  %6 = load ptr, ptr %5, align 8, !tbaa !41
  %7 = load ptr, ptr %4, align 8, !tbaa !42
  %8 = ptrtoint ptr %6 to i64
  %9 = ptrtoint ptr %7 to i64
  %10 = sub i64 %8, %9
  %11 = sdiv exact i64 %10, 792
  %12 = trunc i64 %11 to i32
  store i32 0, ptr %2, align 4, !tbaa !124
  %13 = getelementptr inbounds nuw i8, ptr %2, i64 4
  store i32 %12, ptr %13, align 4, !tbaa !126
  call void @llvm.lifetime.start.p0(i64 16, ptr nonnull %3) #23
  store ptr getelementptr inbounds nuw inrange(-16, 24) (i8, ptr @_ZTVN2cv32MultiscaleDerivativesKAZEInvokerE, i64 16), ptr %3, align 8, !tbaa !62
  %14 = getelementptr inbounds nuw i8, ptr %3, i64 8
  store ptr %4, ptr %14, align 8, !tbaa !127
  invoke void @_ZN2cv13parallel_for_ERKNS_5RangeERKNS_16ParallelLoopBodyEd(ptr noundef nonnull align 4 dereferenceable(8) %2, ptr noundef nonnull align 8 dereferenceable(8) %3, double noundef -1.000000e+00)
          to label %15 unwind label %16

15:                                               ; preds = %1
  call void @_ZN2cv16ParallelLoopBodyD2Ev(ptr noundef nonnull align 8 dereferenceable(16) %3) #23
  call void @llvm.lifetime.end.p0(i64 16, ptr nonnull %3) #23
  call void @llvm.lifetime.end.p0(i64 8, ptr nonnull %2) #23
  ret void

16:                                               ; preds = %1
  %17 = landingpad { ptr, i32 }
          cleanup
  call void @_ZN2cv16ParallelLoopBodyD2Ev(ptr noundef nonnull align 8 dereferenceable(16) %3) #23
  call void @llvm.lifetime.end.p0(i64 16, ptr nonnull %3) #23
  call void @llvm.lifetime.end.p0(i64 8, ptr nonnull %2) #23
  resume { ptr, i32 } %17
}